target datalayout = "e-m:e-p270:32:32-p271:32:32-p272:64:64-i64:64-i128:128-f80:128-n8:16:32:64-S128"
target triple = "x86_64-pc-linux-gnu"

%struct.UConverterLoadArgs = type { i32, i32, i8, i8, i16, i32, ptr, ptr, ptr }
%struct.UConverter = type { ptr, ptr, ptr, ptr, ptr, ptr, ptr, i32, i8, i8, i8, i8, i8, [7 x i8], i32, i32, i32, i32, i8, i8, i8, i8, i8, i8, i8, i8, [8 x i8], [32 x i8], [2 x i16], [2 x i16], [32 x i16], i32, [19 x i16], [31 x i8], i8, i8, i8, i32 }
%struct.UConverterDataHZ = type { ptr, i32, i32, i8, i8, i8, i8 }

@.str = private unnamed_addr constant [4 x i8] c"GBK\00", align 1

; Function Attrs: inlinehint mustprogress nounwind uwtable
define internal noundef signext i8 @_ZL9U_FAILURE10UErrorCode(i32 noundef %0) #4 {
  %2 = alloca i32, align 4
  store i32 %0, ptr %2, align 4, !tbaa !14
  %3 = load i32, ptr %2, align 4, !tbaa !14
  %4 = icmp sgt i32 %3, 0
  %5 = zext i1 %4 to i8
  ret i8 %5
}

; Function Attrs: mustprogress uwtable
define internal void @_ZL7_HZOpenP10UConverterP18UConverterLoadArgsP10UErrorCode(ptr noundef %0, ptr noundef %1, ptr noundef %2) #0 {
  %4 = alloca ptr, align 8
  %5 = alloca ptr, align 8
  %6 = alloca ptr, align 8
  %7 = alloca ptr, align 8
  %8 = alloca i32, align 4
  store ptr %0, ptr %4, align 8, !tbaa !3
  store ptr %1, ptr %5, align 8, !tbaa !8
  store ptr %2, ptr %6, align 8, !tbaa !8
  call void @llvm.lifetime.start.p0(i64 8, ptr %7) #7
  %9 = load ptr, ptr %5, align 8, !tbaa !8
  %10 = getelementptr inbounds nuw %struct.UConverterLoadArgs, ptr %9, i32 0, i32 2
  %11 = load i8, ptr %10, align 8, !tbaa !9
  %12 = icmp ne i8 %11, 0
  br i1 %12, label %13, label %16

13:                                               ; preds = %3
  %14 = load ptr, ptr %6, align 8, !tbaa !8
  %15 = call signext i8 @ucnv_canCreateConverter_77(ptr noundef @.str, ptr noundef %14)
  store i32 1, ptr %8, align 4
  br label %50

16:                                               ; preds = %3
  %17 = load ptr, ptr %6, align 8, !tbaa !8
  %18 = call ptr @ucnv_open_77(ptr noundef @.str, ptr noundef %17)
  store ptr %18, ptr %7, align 8, !tbaa !3
  %19 = load ptr, ptr %6, align 8, !tbaa !8
  %20 = load i32, ptr %19, align 4, !tbaa !14
  %21 = call noundef signext i8 @_ZL9U_FAILURE10UErrorCode(i32 noundef %20)
  %22 = icmp ne i8 %21, 0
  br i1 %22, label %23, label %24

23:                                               ; preds = %16
  store i32 1, ptr %8, align 4
  br label %50

24:                                               ; preds = %16
  %25 = load ptr, ptr %4, align 8, !tbaa !3
  %26 = getelementptr inbounds nuw %struct.UConverter, ptr %25, i32 0, i32 14
  store i32 0, ptr %26, align 8, !tbaa !16
  %27 = load ptr, ptr %4, align 8, !tbaa !3
  %28 = getelementptr inbounds nuw %struct.UConverter, ptr %27, i32 0, i32 16
  store i32 0, ptr %28, align 8, !tbaa !20
  %29 = load ptr, ptr %4, align 8, !tbaa !3
  %30 = getelementptr inbounds nuw %struct.UConverter, ptr %29, i32 0, i32 15
  store i32 0, ptr %30, align 4, !tbaa !21
  %31 = load ptr, ptr %4, align 8, !tbaa !3
  %32 = getelementptr inbounds nuw %struct.UConverter, ptr %31, i32 0, i32 17
  store i32 0, ptr %32, align 4, !tbaa !22
  %33 = call noalias ptr @uprv_calloc_77(i64 noundef 1, i64 noundef 24) #8
  %34 = load ptr, ptr %4, align 8, !tbaa !3
  %35 = getelementptr inbounds nuw %struct.UConverter, ptr %34, i32 0, i32 2
  store ptr %33, ptr %35, align 8, !tbaa !23
  %36 = load ptr, ptr %4, align 8, !tbaa !3
  %37 = getelementptr inbounds nuw %struct.UConverter, ptr %36, i32 0, i32 2
  %38 = load ptr, ptr %37, align 8, !tbaa !23
  %39 = icmp ne ptr %38, null
  br i1 %39, label %40, label %46

40:                                               ; preds = %24
  %41 = load ptr, ptr %7, align 8, !tbaa !3
  %42 = load ptr, ptr %4, align 8, !tbaa !3
  %43 = getelementptr inbounds nuw %struct.UConverter, ptr %42, i32 0, i32 2
  %44 = load ptr, ptr %43, align 8, !tbaa !23
  %45 = getelementptr inbounds nuw %struct.UConverterDataHZ, ptr %44, i32 0, i32 0
  store ptr %41, ptr %45, align 8, !tbaa !24
  br label %49

46:                                               ; preds = %24
  %47 = load ptr, ptr %7, align 8, !tbaa !3
  call void @ucnv_close_77(ptr noundef %47)
  %48 = load ptr, ptr %6, align 8, !tbaa !8
  store i32 7, ptr %48, align 4, !tbaa !14
  store i32 1, ptr %8, align 4
  br label %50

49:                                               ; preds = %40
  store i32 0, ptr %8, align 4
  br label %50

50:                                               ; preds = %49, %46, %23, %13
  call void @llvm.lifetime.end.p0(i64 8, ptr %7) #7
  %51 = load i32, ptr %8, align 4
  switch i32 %51, label %53 [
    i32 0, label %52
    i32 1, label %52
  ]

52:                                               ; preds = %50, %50
  ret void

53:                                               ; preds = %50
  unreachable
}