; Function Attrs: mustprogress uwtable
define internal void @_ZL7_HZOpenP10UConverterP18UConverterLoadArgsP10UErrorCode(ptr noundef writeonly captures(none) %0, ptr noundef readonly captures(none) %1, ptr noundef %2) #0 {
  %4 = getelementptr inbounds nuw i8, ptr %1, i64 8
  %5 = load i8, ptr %4, align 8, !tbaa !3
  %.not = icmp eq i8 %5, 0
  br i1 %.not, label %8, label %6

6:                                                ; preds = %3
  %7 = tail call signext i8 @ucnv_canCreateConverter_77(ptr noundef nonnull @.str, ptr noundef %2)
  br label %18

8:                                                ; preds = %3
  %9 = tail call ptr @ucnv_open_77(ptr noundef nonnull @.str, ptr noundef %2)
  %10 = load i32, ptr %2, align 4, !tbaa !11
  %11 = icmp slt i32 %10, 1
  br i1 %11, label %12, label %18

12:                                               ; preds = %8
  %13 = getelementptr inbounds nuw i8, ptr %0, i64 72
  tail call void @llvm.memset.p0.i64(ptr noundef nonnull align 8 dereferenceable(16) %13, i8 0, i64 16, i1 false)
  %14 = tail call noalias dereferenceable_or_null(24) ptr @uprv_calloc_77(i64 noundef 1, i64 noundef 24) #7
  %15 = getelementptr inbounds nuw i8, ptr %0, i64 16
  store ptr %14, ptr %15, align 8, !tbaa !13
  %.not15 = icmp eq ptr %14, null
  br i1 %.not15, label %17, label %16

16:                                               ; preds = %12
  store ptr %9, ptr %14, align 8, !tbaa !17
  br label %18

17:                                               ; preds = %12
  tail call void @ucnv_close_77(ptr noundef %9)
  store i32 7, ptr %2, align 4, !tbaa !11
  br label %18

18:                                               ; preds = %8, %16, %17, %6
  ret void
}